; ModuleID = '3/1499.c'
source_filename = "3/1499.c"
target datalayout = "e-m:e-p270:32:32-p271:32:32-p272:64:64-i64:64-f80:128-n8:16:32:64-S128"
target triple = "x86_64-pc-linux-gnu"

@.str = private unnamed_addr constant [6 x i8] c"%d %d\00", align 1
@.str.1 = private unnamed_addr constant [3 x i8] c"%d\00", align 1
@.str.2 = private unnamed_addr constant [3 x i8] c"no\00", align 1
@.str.3 = private unnamed_addr constant [4 x i8] c"yes\00", align 1

; Function Attrs: noinline nounwind uwtable
define dso_local i32 @main() #0 {
  %1 = alloca i32, align 4
  %2 = alloca i32, align 4
  %3 = alloca i32, align 4
  %4 = alloca i32, align 4
  %5 = alloca i32, align 4
  %6 = alloca i32, align 4
  %7 = alloca i32, align 4
  %8 = alloca i32, align 4
  %9 = alloca [1000 x i32], align 16
  %10 = alloca [499500 x i32], align 16
  store i32 0, i32* %1, align 4
  store i32 0, i32* %8, align 4
  %11 = call i32 (i8*, ...) @__isoc99_scanf(i8* getelementptr inbounds ([6 x i8], [6 x i8]* @.str, i64 0, i64 0), i32* %2, i32* %4)
  store i32 0, i32* %3, align 4
  br label %12

12:                                               ; preds = %21, %0
  %13 = load i32, i32* %3, align 4
  %14 = load i32, i32* %2, align 4
  %15 = icmp slt i32 %13, %14
  br i1 %15, label %16, label %24

16:                                               ; preds = %12
  %17 = load i32, i32* %3, align 4
  %18 = sext i32 %17 to i64
  %19 = getelementptr inbounds [1000 x i32], [1000 x i32]* %9, i64 0, i64 %18
  %20 = call i32 (i8*, ...) @__isoc99_scanf(i8* getelementptr inbounds ([3 x i8], [3 x i8]* @.str.1, i64 0, i64 0), i32* %19)
  br label %21

21:                                               ; preds = %16
  %22 = load i32, i32* %3, align 4
  %23 = add nsw i32 %22, 1
  store i32 %23, i32* %3, align 4
  br label %12

24:                                               ; preds = %12
  store i32 0, i32* %3, align 4
  br label %25

25:                                               ; preds = %56, %24
  %26 = load i32, i32* %3, align 4
  %27 = load i32, i32* %2, align 4
  %28 = icmp slt i32 %26, %27
  br i1 %28, label %29, label %59

29:                                               ; preds = %25
  %30 = load i32, i32* %3, align 4
  %31 = add nsw i32 %30, 1
  store i32 %31, i32* %5, align 4
  br label %32

32:                                               ; preds = %52, %29
  %33 = load i32, i32* %5, align 4
  %34 = load i32, i32* %2, align 4
  %35 = icmp sle i32 %33, %34
  br i1 %35, label %36, label %55

36:                                               ; preds = %32
  %37 = load i32, i32* %3, align 4
  %38 = sext i32 %37 to i64
  %39 = getelementptr inbounds [1000 x i32], [1000 x i32]* %9, i64 0, i64 %38
  %40 = load i32, i32* %39, align 4
  %41 = load i32, i32* %5, align 4
  %42 = sext i32 %41 to i64
  %43 = getelementptr inbounds [1000 x i32], [1000 x i32]* %9, i64 0, i64 %42
  %44 = load i32, i32* %43, align 4
  %45 = add nsw i32 %40, %44
  %46 = load i32, i32* %8, align 4
  %47 = sext i32 %46 to i64
  %48 = getelementptr inbounds [499500 x i32], [499500 x i32]* %10, i64 0, i64 %47
  store i32 %45, i32* %48, align 4
  %49 = load i32, i32* %8, align 4
  %50 = add nsw i32 %49, 1
  store i32 %50, i32* %8, align 4
  %51 = load i32, i32* %8, align 4
  store i32 %51, i32* %6, align 4
  br label %52

52:                                               ; preds = %36
  %53 = load i32, i32* %5, align 4
  %54 = add nsw i32 %53, 1
  store i32 %54, i32* %5, align 4
  br label %32

55:                                               ; preds = %32
  br label %56

56:                                               ; preds = %55
  %57 = load i32, i32* %3, align 4
  %58 = add nsw i32 %57, 1
  store i32 %58, i32* %3, align 4
  br label %25

59:                                               ; preds = %25
  store i32 0, i32* %7, align 4
  store i32 0, i32* %8, align 4
  br label %60

60:                                               ; preds = %75, %59
  %61 = load i32, i32* %8, align 4
  %62 = load i32, i32* %6, align 4
  %63 = icmp slt i32 %61, %62
  br i1 %63, label %64, label %78

64:                                               ; preds = %60
  %65 = load i32, i32* %8, align 4
  %66 = sext i32 %65 to i64
  %67 = getelementptr inbounds [499500 x i32], [499500 x i32]* %10, i64 0, i64 %66
  %68 = load i32, i32* %67, align 4
  %69 = load i32, i32* %4, align 4
  %70 = icmp eq i32 %68, %69
  br i1 %70, label %71, label %74

71:                                               ; preds = %64
  %72 = load i32, i32* %7, align 4
  %73 = add nsw i32 %72, 1
  store i32 %73, i32* %7, align 4
  br label %74

74:                                               ; preds = %71, %64
  br label %75

75:                                               ; preds = %74
  %76 = load i32, i32* %8, align 4
  %77 = add nsw i32 %76, 1
  store i32 %77, i32* %8, align 4
  br label %60

78:                                               ; preds = %60
  %79 = load i32, i32* %7, align 4
  %80 = icmp eq i32 %79, 0
  br i1 %80, label %81, label %83

81:                                               ; preds = %78
  %82 = call i32 (i8*, ...) @printf(i8* getelementptr inbounds ([3 x i8], [3 x i8]* @.str.2, i64 0, i64 0))
  br label %85

83:                                               ; preds = %78
  %84 = call i32 (i8*, ...) @printf(i8* getelementptr inbounds ([4 x i8], [4 x i8]* @.str.3, i64 0, i64 0))
  br label %85

85:                                               ; preds = %83, %81
  ret i32 0
}

declare dso_local i32 @__isoc99_scanf(i8*, ...) #1

declare dso_local i32 @printf(i8*, ...) #1


!llvm.module.flags = !{!0}
!llvm.ident = !{!1}

!0 = !{i32 1, !"wchar_size", i32 4}
!1 = !{!"clang version 10.0.0-4ubuntu1 "}
